Certificate:
    Data:
        Version: 3 (0x2)
        Serial Number: 12 (0xc)
        Signature Algorithm: sha256WithRSAEncryption
        Issuer: C=US, O=Google, OU=Enterprise, CN=Single Root CA
        Validity
            Not Before: Apr  2 12:46:14 2024 GMT
            Not After : Apr  2 12:46:14 2034 GMT
        Subject: C=US, O=Google, OU=Enterprise, CN=svc.domain.com
        Subject Public Key Info:
            Public Key Algorithm: rsaEncryption
                Public-Key: (2048 bit)
                Modulus:
                    00:d3:35:6c:85:a3:40:a5:00:4b:fc:30:75:70:68:
                    3e:f1:0e:44:17:81:c7:ea:cb:b4:d0:51:7f:d3:71:
                    0b:24:bb:19:4f:82:c9:8a:46:f7:23:c5:81:e5:b2:
                    a6:90:82:08:ed:d6:a4:86:de:85:3d:13:34:76:91:
                    d1:e7:f0:11:af:8a:6c:70:11:55:c4:e0:3a:8c:60:
                    57:34:21:7b:f6:99:d5:86:e0:1e:a5:40:53:b8:b5:
                    c4:81:a6:6f:76:73:35:e1:0f:3c:32:ae:c6:07:12:
                    75:d8:76:8c:d9:31:bb:81:dd:89:06:00:9b:bf:51:
                    b8:a2:96:50:d9:13:3d:e0:61:da:9f:a6:15:8b:8d:
                    db:7f:67:00:92:d1:99:23:0c:17:b4:82:35:7c:ba:
                    4e:59:4d:4a:83:1e:94:1f:0b:57:9f:3d:a5:2e:30:
                    f0:ec:0d:20:70:61:4e:e6:84:db:0f:9c:c5:18:87:
                    fd:2d:3d:06:c1:d5:cf:63:b8:57:fc:e5:54:07:4a:
                    0c:84:5a:fe:9e:56:28:66:ed:07:e4:21:72:03:bb:
                    ea:05:04:32:04:d6:33:94:e2:bb:6b:b7:73:73:ea:
                    fc:04:31:9b:1d:54:ba:a7:a2:1d:ca:cf:29:a8:c4:
                    b7:de:3a:20:9b:01:d0:06:90:9e:88:5b:ac:ad:50:
                    af:9f
                Exponent: 65537 (0x10001)
        X509v3 extensions:
            X509v3 Key Usage: critical
                Digital Signature
            X509v3 Basic Constraints: 
                CA:FALSE
            X509v3 Extended Key Usage: 
                TLS Web Server Authentication
            X509v3 Subject Key Identifier: 
                1F:27:1B:90:64:9C:DB:0C:30:94:A8:3D:BE:67:03:3E:8D:1E:3A:9A
            X509v3 Authority Key Identifier: 
                EC:F0:EA:53:53:3F:9F:23:DC:C1:0E:31:10:37:07:DE:DE:E7:6E:F3
            Authority Information Access: 
                CA Issuers - URI:http://pki.esodemoapp2.com/ca/root-ca.cer
            X509v3 CRL Distribution Points: 
                Full Name:
                  URI:http://pki.esodemoapp2.com/ca/root-ca.crl
            X509v3 Subject Alternative Name: 
                DNS:svc1.example.com, DNS:svc2.example.com
    Signature Algorithm: sha256WithRSAEncryption
    Signature Value:
        b0:10:7a:90:85:e4:d5:46:e2:3a:f2:22:05:55:d6:64:2f:11:
        82:9f:4f:fc:84:2e:32:39:3d:bc:ff:e8:04:65:c2:24:98:8e:
        7e:8b:f2:39:b5:4a:4c:ce:be:45:7e:46:18:05:59:95:c2:0f:
        52:19:db:4f:59:6a:f5:c2:2b:56:2b:dd:29:61:e9:ff:cc:8c:
        f3:60:2f:e7:2e:4f:79:b7:cf:1d:2b:33:44:76:60:48:f2:2c:
        fb:f8:27:b2:60:65:45:08:70:18:a7:e2:ef:97:dd:0c:98:9d:
        73:f9:e2:c9:3a:be:15:97:f0:e2:92:2d:fd:55:98:72:8f:53:
        7d:11:61:dd:38:c1:9b:d0:63:57:cb:f6:d7:00:a5:00:bd:dc:
        f8:44:69:e1:2b:36:20:84:63:51:38:e9:b9:12:9e:b8:d0:61:
        ed:f7:eb:b6:8a:54:5a:64:5b:c8:ce:55:38:8a:20:52:b5:66:
        fd:47:c6:d0:ea:c3:54:fc:95:a7:07:a9:d6:e2:74:53:d3:fb:
        b4:07:70:5d:54:c9:56:fa:2a:93:fa:88:a8:d8:1c:d5:06:5b:
        44:50:9c:71:bb:40:88:2b:25:88:51:5b:75:fe:0e:96:dd:98:
        d5:7a:d6:29:12:66:0c:68:28:4a:02:4d:d7:f3:12:37:a9:3a:
        79:41:ea:68
-----BEGIN CERTIFICATE-----
MIIEOzCCAyOgAwIBAgIBDDANBgkqhkiG9w0BAQsFADBMMQswCQYDVQQGEwJVUzEP
MA0GA1UECgwGR29vZ2xlMRMwEQYDVQQLDApFbnRlcnByaXNlMRcwFQYDVQQDDA5T
aW5nbGUgUm9vdCBDQTAeFw0yNDA0MDIxMjQ2MTRaFw0zNDA0MDIxMjQ2MTRaMEwx
CzAJBgNVBAYTAlVTMQ8wDQYDVQQKDAZHb29nbGUxEzARBgNVBAsMCkVudGVycHJp
c2UxFzAVBgNVBAMMDnN2Yy5kb21haW4uY29tMIIBIjANBgkqhkiG9w0BAQEFAAOC
AQ8AMIIBCgKCAQEA0zVshaNApQBL/DB1cGg+8Q5EF4HH6su00FF/03ELJLsZT4LJ
ikb3I8WB5bKmkIII7dakht6FPRM0dpHR5/ARr4pscBFVxOA6jGBXNCF79pnVhuAe
pUBTuLXEgaZvdnM14Q88Mq7GBxJ12HaM2TG7gd2JBgCbv1G4opZQ2RM94GHan6YV
i43bf2cAktGZIwwXtII1fLpOWU1Kgx6UHwtXnz2lLjDw7A0gcGFO5oTbD5zFGIf9
LT0GwdXPY7hX/OVUB0oMhFr+nlYoZu0H5CFyA7vqBQQyBNYzlOK7a7dzc+r8BDGb
HVS6p6Idys8pqMS33jogmwHQBpCeiFusrVCvnwIDAQABo4IBJjCCASIwDgYDVR0P
AQH/BAQDAgeAMAkGA1UdEwQCMAAwEwYDVR0lBAwwCgYIKwYBBQUHAwEwHQYDVR0O
BBYEFB8nG5BknNsMMJSoPb5nAz6NHjqaMB8GA1UdIwQYMBaAFOzw6lNTP58j3MEO
MRA3B97e527zMEUGCCsGAQUFBwEBBDkwNzA1BggrBgEFBQcwAoYpaHR0cDovL3Br
aS5lc29kZW1vYXBwMi5jb20vY2Evcm9vdC1jYS5jZXIwOgYDVR0fBDMwMTAvoC2g
K4YpaHR0cDovL3BraS5lc29kZW1vYXBwMi5jb20vY2Evcm9vdC1jYS5jcmwwLQYD
VR0RBCYwJIIQc3ZjMS5leGFtcGxlLmNvbYIQc3ZjMi5leGFtcGxlLmNvbTANBgkq
hkiG9w0BAQsFAAOCAQEAsBB6kIXk1UbiOvIiBVXWZC8Rgp9P/IQuMjk9vP/oBGXC
JJiOfovyObVKTM6+RX5GGAVZlcIPUhnbT1lq9cIrVivdKWHp/8yM82Av5y5PebfP
HSszRHZgSPIs+/gnsmBlRQhwGKfi75fdDJidc/niyTq+FZfw4pIt/VWYco9TfRFh
3TjBm9BjV8v21wClAL3c+ERp4Ss2IIRjUTjpuRKeuNBh7ffrtopUWmRbyM5VOIog
UrVm/UfG0OrDVPyVpwep1uJ0U9P7tAdwXVTJVvoqk/qIqNgc1QZbRFCccbtAiCsl
iFFbdf4Olt2Y1XrWKRJmDGgoSgJN1/MSN6k6eUHqaA==
-----END CERTIFICATE-----
